target datalayout = "e-m:e-p270:32:32-p271:32:32-p272:64:64-i64:64-i128:128-f80:128-n8:16:32:64-S128"
target triple = "x86_64-pc-linux-gnu"

%struct.expert_field = type { i32, i32 }
%struct._packet_info = type { ptr, ptr, i32, i32, %struct.nstime_t, %struct.nstime_t, %struct.nstime_t, i8, ptr, ptr, ptr, ptr, %struct._address, %struct._address, %struct._address, %struct._address, %struct._address, %struct._address, i32, ptr, i8, [3 x i8], %struct.anon, i32, i32, i32, i32, ptr, i8, ptr, ptr, i16, i16, i32, i32, i16, i32, i32, ptr, ptr, ptr, i8, i8, i16, i16, i16, i32, i16, i16, ptr, ptr, ptr, ptr, ptr, i32, i32 }
%struct.nstime_t = type { i64, i32 }
%struct._address = type { i32, i32, ptr, ptr }
%struct.anon = type { i8, [3 x i8] }

@hf_elasticsearch_data = internal global i32 0, align 4
@ett_elasticsearch = internal global i32 0, align 4
@ei_elasticsearch_unsupported_version = internal global %struct.expert_field zeroinitializer, align 4
@.str.70 = private unnamed_addr constant [14 x i8] c"Elasticsearch\00", align 1
@proto_elasticsearch = internal global i32 0, align 4

; Function Attrs: null_pointer_is_valid sspstrong uwtable
define internal i32 @elasticsearch_binary_header_is_valid(ptr noundef %0) #0 {
  %2 = alloca ptr, align 8
  store ptr %0, ptr %2, align 8
  %3 = load ptr, ptr %2, align 8
  %4 = call i32 @tvb_captured_length(ptr noundef %3)
  %5 = icmp uge i32 %4, 2
  br i1 %5, label %6, label %11

6:                                                ; preds = %1
  %7 = load ptr, ptr %2, align 8
  %8 = call zeroext i16 @tvb_get_ntohs(ptr noundef %7, i32 noundef 0)
  %9 = zext i16 %8 to i32
  %10 = icmp eq i32 %9, 17747
  br label %11

11:                                               ; preds = %6, %1
  %12 = phi i1 [ false, %1 ], [ %10, %6 ]
  %13 = zext i1 %12 to i32
  ret i32 %13
}

; Function Attrs: null_pointer_is_valid sspstrong uwtable
define internal i32 @dissect_elasticsearch_binary(ptr noundef %0, ptr noundef %1, ptr noundef %2, ptr noundef %3) #0 {
  %5 = alloca ptr, align 8
  %6 = alloca ptr, align 8
  %7 = alloca ptr, align 8
  %8 = alloca ptr, align 8
  %9 = alloca i32, align 4
  %10 = alloca ptr, align 8
  %11 = alloca ptr, align 8
  store ptr %0, ptr %5, align 8
  store ptr %1, ptr %6, align 8
  store ptr %2, ptr %7, align 8
  store ptr %3, ptr %8, align 8
  call void @llvm.lifetime.start.p0(i64 4, ptr %9) #6
  store i32 0, ptr %9, align 4
  call void @llvm.lifetime.start.p0(i64 8, ptr %10) #6
  call void @llvm.lifetime.start.p0(i64 8, ptr %11) #6
  %12 = load ptr, ptr %6, align 8
  %13 = getelementptr inbounds nuw %struct._packet_info, ptr %12, i32 0, i32 1
  %14 = load ptr, ptr %13, align 8
  call void @col_set_str(ptr noundef %14, i32 noundef 35, ptr noundef @.str.70)
  %15 = load ptr, ptr %6, align 8
  %16 = getelementptr inbounds nuw %struct._packet_info, ptr %15, i32 0, i32 1
  %17 = load ptr, ptr %16, align 8
  call void @col_clear(ptr noundef %17, i32 noundef 25)
  %18 = load ptr, ptr %7, align 8
  %19 = load i32, ptr @proto_elasticsearch, align 4
  %20 = load ptr, ptr %5, align 8
  %21 = call ptr @proto_tree_add_item(ptr noundef %18, i32 noundef %19, ptr noundef %20, i32 noundef 0, i32 noundef -1, i32 noundef 0)
  store ptr %21, ptr %10, align 8
  %22 = load ptr, ptr %10, align 8
  %23 = load i32, ptr @ett_elasticsearch, align 4
  %24 = call ptr @proto_item_add_subtree(ptr noundef %22, i32 noundef %23)
  store ptr %24, ptr %11, align 8
  %25 = load ptr, ptr %5, align 8
  %26 = call i32 @elasticsearch_binary_header_is_valid(ptr noundef %25)
  %27 = icmp ne i32 %26, 0
  br i1 %27, label %28, label %33

28:                                               ; preds = %4
  %29 = load ptr, ptr %5, align 8
  %30 = load ptr, ptr %6, align 8
  %31 = load ptr, ptr %11, align 8
  %32 = load ptr, ptr %8, align 8
  call void @tcp_dissect_pdus(ptr noundef %29, ptr noundef %30, ptr noundef %31, i1 noundef zeroext true, i32 noundef 6, ptr noundef @elasticsearch_get_binary_message_len, ptr noundef @elasticsearch_dissect_valid_binary_packet, ptr noundef %32)
  br label %42

33:                                               ; preds = %4
  %34 = load ptr, ptr %11, align 8
  %35 = load i32, ptr @hf_elasticsearch_data, align 4
  %36 = load ptr, ptr %5, align 8
  %37 = load i32, ptr %9, align 4
  %38 = call ptr @proto_tree_add_item(ptr noundef %34, i32 noundef %35, ptr noundef %36, i32 noundef %37, i32 noundef -1, i32 noundef 0)
  %39 = load ptr, ptr %6, align 8
  %40 = load ptr, ptr %11, align 8
  %41 = call ptr @expert_add_info(ptr noundef %39, ptr noundef %40, ptr noundef @ei_elasticsearch_unsupported_version)
  br label %42

42:                                               ; preds = %33, %28
  %43 = load ptr, ptr %5, align 8
  %44 = call i32 @tvb_captured_length(ptr noundef %43)
  call void @llvm.lifetime.end.p0(i64 8, ptr %11) #6
  call void @llvm.lifetime.end.p0(i64 8, ptr %10) #6
  call void @llvm.lifetime.end.p0(i64 4, ptr %9) #6
  ret i32 %44
}