; Function Attrs: null_pointer_is_valid sspstrong uwtable
define internal i32 @dissect_elasticsearch_binary(ptr noundef %0, ptr noundef %1, ptr noundef %2, ptr noundef %3) #0 {
  %5 = getelementptr inbounds nuw i8, ptr %1, i64 8
  %6 = load ptr, ptr %5, align 8
  tail call void @col_set_str(ptr noundef %6, i32 noundef 35, ptr noundef nonnull @.str.70)
  %7 = load ptr, ptr %5, align 8
  tail call void @col_clear(ptr noundef %7, i32 noundef 25)
  %8 = load i32, ptr @proto_elasticsearch, align 4
  %9 = tail call ptr @proto_tree_add_item(ptr noundef %2, i32 noundef %8, ptr noundef %0, i32 noundef 0, i32 noundef -1, i32 noundef 0)
  %10 = load i32, ptr @ett_elasticsearch, align 4
  %11 = tail call ptr @proto_item_add_subtree(ptr noundef %9, i32 noundef %10)
  %12 = tail call i32 @tvb_captured_length(ptr noundef %0)
  %13 = icmp ugt i32 %12, 1
  br i1 %13, label %elasticsearch_binary_header_is_valid.exit, label %elasticsearch_binary_header_is_valid.exit.thread

elasticsearch_binary_header_is_valid.exit:        ; preds = %4
  %14 = tail call zeroext i16 @tvb_get_ntohs(ptr noundef %0, i32 noundef 0)
  %.not = icmp eq i16 %14, 17747
  br i1 %.not, label %15, label %elasticsearch_binary_header_is_valid.exit.thread

15:                                               ; preds = %elasticsearch_binary_header_is_valid.exit
  tail call void @tcp_dissect_pdus(ptr noundef %0, ptr noundef %1, ptr noundef %11, i1 noundef zeroext true, i32 noundef 6, ptr noundef nonnull @elasticsearch_get_binary_message_len, ptr noundef nonnull @elasticsearch_dissect_valid_binary_packet, ptr noundef %3)
  br label %19

elasticsearch_binary_header_is_valid.exit.thread: ; preds = %4, %elasticsearch_binary_header_is_valid.exit
  %16 = load i32, ptr @hf_elasticsearch_data, align 4
  %17 = tail call ptr @proto_tree_add_item(ptr noundef %11, i32 noundef %16, ptr noundef %0, i32 noundef 0, i32 noundef -1, i32 noundef 0)
  %18 = tail call ptr @expert_add_info(ptr noundef %1, ptr noundef %11, ptr noundef nonnull @ei_elasticsearch_unsupported_version)
  br label %19

19:                                               ; preds = %elasticsearch_binary_header_is_valid.exit.thread, %15
  %20 = tail call i32 @tvb_captured_length(ptr noundef %0)
  ret i32 %20
}